; Function Attrs: mustprogress nounwind uwtable
define hidden void @_ZNK13WorkerThreads10threads_doEP13ThreadClosure(ptr nocapture noundef nonnull readonly align 8 dereferenceable(120) %0, ptr noundef %1) local_unnamed_addr #0 align 2 {
  %3 = getelementptr inbounds i8, ptr %0, i64 28
  %4 = load i32, ptr %3, align 4
  %.not = icmp eq i32 %4, 0
  br i1 %.not, label %._crit_edge, label %.lr.ph

.lr.ph:                                           ; preds = %2
  %5 = getelementptr inbounds i8, ptr %0, i64 16
  br label %6

6:                                                ; preds = %.lr.ph, %6
  %indvars.iv = phi i64 [ 0, %.lr.ph ], [ %indvars.iv.next, %6 ]
  %7 = load ptr, ptr %5, align 8
  %8 = getelementptr inbounds ptr, ptr %7, i64 %indvars.iv
  %9 = load ptr, ptr %8, align 8
  %10 = load ptr, ptr %1, align 8
  %11 = load ptr, ptr %10, align 8
  tail call void %11(ptr noundef nonnull align 8 dereferenceable(8) %1, ptr noundef %9) #10
  %indvars.iv.next = add nuw nsw i64 %indvars.iv, 1
  %12 = load i32, ptr %3, align 4
  %13 = zext i32 %12 to i64
  %14 = icmp ult i64 %indvars.iv.next, %13
  br i1 %14, label %6, label %._crit_edge, !llvm.loop !9

._crit_edge:                                      ; preds = %6, %2
  ret void
}